target datalayout = "e-m:e-p270:32:32-p271:32:32-p272:64:64-i64:64-i128:128-f80:128-n8:16:32:64-S128"
target triple = "x86_64-pc-linux-gnu"

%struct._Node = type { %union.anon }
%union.anon = type { %struct.StrNode }
%struct.StrNode = type { %struct.NodeBase, ptr, ptr, i32, i32, [24 x i8] }
%struct.NodeBase = type { i32 }
%struct.ConsAltNode = type { %struct.NodeBase, ptr, ptr }
%struct.ScanEnv = type { i32, i32, ptr, ptr, i32, i32, i32, i32, ptr, ptr, ptr, ptr, ptr, ptr, i32, i32, i32, i32, [8 x ptr], ptr, i32, i32, ptr, i32 }
%struct.OnigToken = type { i32, i32, i32, ptr, %union.anon.0 }
%union.anon.0 = type { %struct.anon.2 }
%struct.anon.2 = type { i32, i32, ptr, i32, i32, i32 }

@ParseDepthLimit = internal global i32 4096, align 4

; Function Attrs: alwaysinline nounwind
define internal ptr @memcpy.inline(ptr noalias nonnull %0, ptr noalias nonnull %1, i64 %2) #2 {
  %4 = alloca ptr, align 8
  %5 = alloca ptr, align 8
  %6 = alloca i64, align 8
  store ptr %0, ptr %4, align 8, !tbaa !12
  store ptr %1, ptr %5, align 8, !tbaa !12
  store i64 %2, ptr %6, align 8, !tbaa !15
  %7 = load ptr, ptr %4, align 8, !tbaa !12
  %8 = load ptr, ptr %5, align 8, !tbaa !12
  %9 = load i64, ptr %6, align 8, !tbaa !15
  %10 = load ptr, ptr %4, align 8, !tbaa !12
  %11 = call i64 @llvm.objectsize.i64.p0(ptr %10, i1 false, i1 true, i1 false)
  %12 = call ptr @__memcpy_chk(ptr noundef %7, ptr noundef %8, i64 noundef %9, i64 noundef %11) #13
  ret ptr %12
}

; Function Attrs: nounwind sspstrong uwtable
define internal ptr @node_new() #0 {
  %1 = alloca ptr, align 8
  call void @llvm.lifetime.start.p0(i64 8, ptr %1) #13
  %2 = call noalias ptr @malloc(i64 noundef 56) #14
  store ptr %2, ptr %1, align 8, !tbaa !68
  %3 = load ptr, ptr %1, align 8, !tbaa !68
  call void @llvm.lifetime.end.p0(i64 8, ptr %1) #13
  ret ptr %3
}

; Function Attrs: nounwind sspstrong uwtable
define dso_local ptr @onig_node_new_alt(ptr noundef %0, ptr noundef %1) #0 {
  %3 = alloca ptr, align 8
  %4 = alloca ptr, align 8
  %5 = alloca ptr, align 8
  %6 = alloca ptr, align 8
  %7 = alloca i32, align 4
  %8 = alloca i32, align 4
  store ptr %0, ptr %4, align 8, !tbaa !68
  store ptr %1, ptr %5, align 8, !tbaa !68
  call void @llvm.lifetime.start.p0(i64 8, ptr %6) #13
  %9 = call ptr @node_new()
  store ptr %9, ptr %6, align 8, !tbaa !68
  %10 = load ptr, ptr %6, align 8, !tbaa !68
  %11 = icmp eq ptr %10, null
  br i1 %11, label %12, label %13

12:                                               ; preds = %2
  store ptr null, ptr %3, align 8
  store i32 1, ptr %7, align 4
  br label %30

13:                                               ; preds = %2
  br label %14

14:                                               ; preds = %13
  call void @llvm.lifetime.start.p0(i64 4, ptr %8) #13
  store i32 9, ptr %8, align 4, !tbaa !13
  %15 = load ptr, ptr %6, align 8, !tbaa !68
  %16 = getelementptr inbounds nuw %struct._Node, ptr %15, i32 0, i32 0
  %17 = getelementptr inbounds nuw %struct.NodeBase, ptr %16, i32 0, i32 0
  %18 = call ptr @memcpy.inline(ptr noundef %17, ptr noundef %8, i64 noundef 4) #13
  call void @llvm.lifetime.end.p0(i64 4, ptr %8) #13
  br label %19

19:                                               ; preds = %14
  br label %20

20:                                               ; preds = %19
  %21 = load ptr, ptr %4, align 8, !tbaa !68
  %22 = load ptr, ptr %6, align 8, !tbaa !68
  %23 = getelementptr inbounds nuw %struct._Node, ptr %22, i32 0, i32 0
  %24 = getelementptr inbounds nuw %struct.ConsAltNode, ptr %23, i32 0, i32 1
  store ptr %21, ptr %24, align 8, !tbaa !17
  %25 = load ptr, ptr %5, align 8, !tbaa !68
  %26 = load ptr, ptr %6, align 8, !tbaa !68
  %27 = getelementptr inbounds nuw %struct._Node, ptr %26, i32 0, i32 0
  %28 = getelementptr inbounds nuw %struct.ConsAltNode, ptr %27, i32 0, i32 2
  store ptr %25, ptr %28, align 8, !tbaa !17
  %29 = load ptr, ptr %6, align 8, !tbaa !68
  store ptr %29, ptr %3, align 8
  store i32 1, ptr %7, align 4
  br label %30

30:                                               ; preds = %20, %12
  call void @llvm.lifetime.end.p0(i64 8, ptr %6) #13
  %31 = load ptr, ptr %3, align 8
  ret ptr %31
}

; Function Attrs: nounwind sspstrong uwtable
define internal i32 @parse_subexp(ptr noundef %0, ptr noundef %1, i32 noundef %2, ptr noundef %3, ptr noundef %4, ptr noundef %5) #0 {
  %7 = alloca i32, align 4
  %8 = alloca ptr, align 8
  %9 = alloca ptr, align 8
  %10 = alloca i32, align 4
  %11 = alloca ptr, align 8
  %12 = alloca ptr, align 8
  %13 = alloca ptr, align 8
  %14 = alloca i32, align 4
  %15 = alloca ptr, align 8
  %16 = alloca ptr, align 8
  %17 = alloca i32, align 4
  store ptr %0, ptr %8, align 8, !tbaa !92
  store ptr %1, ptr %9, align 8, !tbaa !12
  store i32 %2, ptr %10, align 4, !tbaa !13
  store ptr %3, ptr %11, align 8, !tbaa !77
  store ptr %4, ptr %12, align 8, !tbaa !7
  store ptr %5, ptr %13, align 8, !tbaa !12
  call void @llvm.lifetime.start.p0(i64 4, ptr %14) #13
  call void @llvm.lifetime.start.p0(i64 8, ptr %15) #13
  call void @llvm.lifetime.start.p0(i64 8, ptr %16) #13
  %18 = load ptr, ptr %8, align 8, !tbaa !92
  store ptr null, ptr %18, align 8, !tbaa !68
  %19 = load ptr, ptr %13, align 8, !tbaa !12
  %20 = getelementptr inbounds nuw %struct.ScanEnv, ptr %19, i32 0, i32 20
  %21 = load i32, ptr %20, align 8, !tbaa !116
  %22 = add i32 %21, 1
  store i32 %22, ptr %20, align 8, !tbaa !116
  %23 = load ptr, ptr %13, align 8, !tbaa !12
  %24 = getelementptr inbounds nuw %struct.ScanEnv, ptr %23, i32 0, i32 20
  %25 = load i32, ptr %24, align 8, !tbaa !116
  %26 = load i32, ptr @ParseDepthLimit, align 4, !tbaa !13
  %27 = icmp ugt i32 %25, %26
  br i1 %27, label %28, label %29

28:                                               ; preds = %6
  store i32 -16, ptr %7, align 4
  store i32 1, ptr %17, align 4
  br label %115

29:                                               ; preds = %6
  %30 = load ptr, ptr %9, align 8, !tbaa !12
  %31 = load i32, ptr %10, align 4, !tbaa !13
  %32 = load ptr, ptr %11, align 8, !tbaa !77
  %33 = load ptr, ptr %12, align 8, !tbaa !7
  %34 = load ptr, ptr %13, align 8, !tbaa !12
  %35 = call i32 @parse_branch(ptr noundef %15, ptr noundef %30, i32 noundef %31, ptr noundef %32, ptr noundef %33, ptr noundef %34)
  store i32 %35, ptr %14, align 4, !tbaa !13
  %36 = load i32, ptr %14, align 4, !tbaa !13
  %37 = icmp slt i32 %36, 0
  br i1 %37, label %38, label %41

38:                                               ; preds = %29
  %39 = load ptr, ptr %15, align 8, !tbaa !68
  call void @onig_node_free(ptr noundef %39)
  %40 = load i32, ptr %14, align 4, !tbaa !13
  store i32 %40, ptr %7, align 4
  store i32 1, ptr %17, align 4
  br label %115

41:                                               ; preds = %29
  %42 = load i32, ptr %14, align 4, !tbaa !13
  %43 = load i32, ptr %10, align 4, !tbaa !13
  %44 = icmp eq i32 %42, %43
  br i1 %44, label %45, label %48

45:                                               ; preds = %41
  %46 = load ptr, ptr %15, align 8, !tbaa !68
  %47 = load ptr, ptr %8, align 8, !tbaa !92
  store ptr %46, ptr %47, align 8, !tbaa !68
  br label %109

48:                                               ; preds = %41
  %49 = load i32, ptr %14, align 4, !tbaa !13
  %50 = icmp eq i32 %49, 13
  br i1 %50, label %51, label %101

51:                                               ; preds = %48
  %52 = load ptr, ptr %15, align 8, !tbaa !68
  %53 = call ptr @onig_node_new_alt(ptr noundef %52, ptr noundef null)
  %54 = load ptr, ptr %8, align 8, !tbaa !92
  store ptr %53, ptr %54, align 8, !tbaa !68
  %55 = load ptr, ptr %8, align 8, !tbaa !92
  %56 = load ptr, ptr %55, align 8, !tbaa !68
  %57 = getelementptr inbounds nuw %struct._Node, ptr %56, i32 0, i32 0
  %58 = getelementptr inbounds nuw %struct.ConsAltNode, ptr %57, i32 0, i32 2
  store ptr %58, ptr %16, align 8, !tbaa !92
  br label %59

59:                                               ; preds = %85, %51
  %60 = load i32, ptr %14, align 4, !tbaa !13
  %61 = icmp eq i32 %60, 13
  br i1 %61, label %62, label %93

62:                                               ; preds = %59
  %63 = load ptr, ptr %9, align 8, !tbaa !12
  %64 = load ptr, ptr %11, align 8, !tbaa !77
  %65 = load ptr, ptr %12, align 8, !tbaa !7
  %66 = load ptr, ptr %13, align 8, !tbaa !12
  %67 = call i32 @fetch_token(ptr noundef %63, ptr noundef %64, ptr noundef %65, ptr noundef %66)
  store i32 %67, ptr %14, align 4, !tbaa !13
  %68 = load i32, ptr %14, align 4, !tbaa !13
  %69 = icmp slt i32 %68, 0
  br i1 %69, label %70, label %73

70:                                               ; preds = %62
  %71 = load ptr, ptr %15, align 8, !tbaa !68
  call void @onig_node_free(ptr noundef %71)
  %72 = load i32, ptr %14, align 4, !tbaa !13
  store i32 %72, ptr %7, align 4
  store i32 1, ptr %17, align 4
  br label %115

73:                                               ; preds = %62
  %74 = load ptr, ptr %9, align 8, !tbaa !12
  %75 = load i32, ptr %10, align 4, !tbaa !13
  %76 = load ptr, ptr %11, align 8, !tbaa !77
  %77 = load ptr, ptr %12, align 8, !tbaa !7
  %78 = load ptr, ptr %13, align 8, !tbaa !12
  %79 = call i32 @parse_branch(ptr noundef %15, ptr noundef %74, i32 noundef %75, ptr noundef %76, ptr noundef %77, ptr noundef %78)
  store i32 %79, ptr %14, align 4, !tbaa !13
  %80 = load i32, ptr %14, align 4, !tbaa !13
  %81 = icmp slt i32 %80, 0
  br i1 %81, label %82, label %85

82:                                               ; preds = %73
  %83 = load ptr, ptr %15, align 8, !tbaa !68
  call void @onig_node_free(ptr noundef %83)
  %84 = load i32, ptr %14, align 4, !tbaa !13
  store i32 %84, ptr %7, align 4
  store i32 1, ptr %17, align 4
  br label %115

85:                                               ; preds = %73
  %86 = load ptr, ptr %15, align 8, !tbaa !68
  %87 = call ptr @onig_node_new_alt(ptr noundef %86, ptr noundef null)
  %88 = load ptr, ptr %16, align 8, !tbaa !92
  store ptr %87, ptr %88, align 8, !tbaa !68
  %89 = load ptr, ptr %16, align 8, !tbaa !92
  %90 = load ptr, ptr %89, align 8, !tbaa !68
  %91 = getelementptr inbounds nuw %struct._Node, ptr %90, i32 0, i32 0
  %92 = getelementptr inbounds nuw %struct.ConsAltNode, ptr %91, i32 0, i32 2
  store ptr %92, ptr %16, align 8, !tbaa !92
  br label %59, !llvm.loop !133

93:                                               ; preds = %59
  %94 = load ptr, ptr %9, align 8, !tbaa !12
  %95 = getelementptr inbounds nuw %struct.OnigToken, ptr %94, i32 0, i32 0
  %96 = load i32, ptr %95, align 8, !tbaa !119
  %97 = load i32, ptr %10, align 4, !tbaa !13
  %98 = icmp ne i32 %96, %97
  br i1 %98, label %99, label %100

99:                                               ; preds = %93
  br label %103

100:                                              ; preds = %93
  br label %108

101:                                              ; preds = %48
  %102 = load ptr, ptr %15, align 8, !tbaa !68
  call void @onig_node_free(ptr noundef %102)
  br label %103

103:                                              ; preds = %101, %99
  %104 = load i32, ptr %10, align 4, !tbaa !13
  %105 = icmp eq i32 %104, 15
  br i1 %105, label %106, label %107

106:                                              ; preds = %103
  store i32 -117, ptr %7, align 4
  store i32 1, ptr %17, align 4
  br label %115

107:                                              ; preds = %103
  store i32 -11, ptr %7, align 4
  store i32 1, ptr %17, align 4
  br label %115

108:                                              ; preds = %100
  br label %109

109:                                              ; preds = %108, %45
  %110 = load ptr, ptr %13, align 8, !tbaa !12
  %111 = getelementptr inbounds nuw %struct.ScanEnv, ptr %110, i32 0, i32 20
  %112 = load i32, ptr %111, align 8, !tbaa !116
  %113 = add i32 %112, -1
  store i32 %113, ptr %111, align 8, !tbaa !116
  %114 = load i32, ptr %14, align 4, !tbaa !13
  store i32 %114, ptr %7, align 4
  store i32 1, ptr %17, align 4
  br label %115

115:                                              ; preds = %109, %107, %106, %82, %70, %38, %28
  call void @llvm.lifetime.end.p0(i64 8, ptr %16) #13
  call void @llvm.lifetime.end.p0(i64 8, ptr %15) #13
  call void @llvm.lifetime.end.p0(i64 4, ptr %14) #13
  %116 = load i32, ptr %7, align 4
  ret i32 %116
}