; Function Attrs: nounwind sspstrong uwtable
define internal fastcc i32 @parse_subexp(ptr noundef writeonly captures(none) initializes((0, 8)) %0, ptr noundef nonnull %1, i32 noundef range(i32 0, 16) %2, ptr noundef nonnull captures(none) %3, ptr noundef %4, ptr noundef %5) unnamed_addr #5 {
  %7 = alloca ptr, align 8
  call void @llvm.lifetime.start.p0(i64 8, ptr nonnull %7) #25
  store ptr null, ptr %0, align 8, !tbaa !89
  %8 = getelementptr inbounds nuw i8, ptr %5, i64 176
  %9 = load i32, ptr %8, align 8, !tbaa !110
  %10 = add i32 %9, 1
  store i32 %10, ptr %8, align 8, !tbaa !110
  %11 = load i32, ptr @ParseDepthLimit, align 4, !tbaa !11
  %12 = icmp ugt i32 %10, %11
  br i1 %12, label %55, label %13

13:                                               ; preds = %6
  %14 = call fastcc i32 @parse_branch(ptr noundef %7, ptr noundef %1, i32 noundef %2, ptr noundef %3, ptr noundef %4, ptr noundef nonnull %5)
  %15 = icmp slt i32 %14, 0
  br i1 %15, label %16, label %18

16:                                               ; preds = %13
  %17 = load ptr, ptr %7, align 8, !tbaa !89
  tail call void @onig_node_free(ptr noundef %17)
  br label %55

18:                                               ; preds = %13
  %19 = icmp eq i32 %14, %2
  br i1 %19, label %20, label %22

20:                                               ; preds = %18
  %21 = load ptr, ptr %7, align 8, !tbaa !89
  store ptr %21, ptr %0, align 8, !tbaa !89
  br label %52

22:                                               ; preds = %18
  %23 = icmp eq i32 %14, 13
  %24 = load ptr, ptr %7, align 8, !tbaa !89
  br i1 %23, label %25, label %49

25:                                               ; preds = %22
  %26 = tail call noalias noundef dereferenceable_or_null(56) ptr @malloc(i64 noundef 56) #26
  %27 = icmp eq ptr %26, null
  br i1 %27, label %onig_node_new_alt.exit, label %28

28:                                               ; preds = %25
  store i32 9, ptr %26, align 1
  %29 = getelementptr inbounds nuw i8, ptr %26, i64 8
  store ptr %24, ptr %29, align 8, !tbaa !13
  %30 = getelementptr inbounds nuw i8, ptr %26, i64 16
  store ptr null, ptr %30, align 8, !tbaa !13
  br label %onig_node_new_alt.exit

onig_node_new_alt.exit:                           ; preds = %25, %28
  store ptr %26, ptr %0, align 8, !tbaa !89
  %31 = tail call fastcc i32 @fetch_token(ptr noundef %1, ptr noundef %3, ptr noundef %4, ptr noundef nonnull %5)
  %32 = icmp slt i32 %31, 0
  br i1 %32, label %._crit_edge, label %.lr.ph

33:                                               ; preds = %onig_node_new_alt.exit45
  %34 = tail call fastcc i32 @fetch_token(ptr noundef %1, ptr noundef %3, ptr noundef %4, ptr noundef nonnull %5)
  %35 = icmp slt i32 %34, 0
  br i1 %35, label %._crit_edge, label %.lr.ph, !llvm.loop !111

._crit_edge:                                      ; preds = %33, %onig_node_new_alt.exit
  %.lcssa65 = phi ptr [ %24, %onig_node_new_alt.exit ], [ %38, %33 ]
  %.lcssa = phi i32 [ %31, %onig_node_new_alt.exit ], [ %34, %33 ]
  tail call void @onig_node_free(ptr noundef %.lcssa65)
  br label %55

.lr.ph:                                           ; preds = %onig_node_new_alt.exit, %33
  %.pn73 = phi ptr [ %41, %33 ], [ %26, %onig_node_new_alt.exit ]
  %.05171 = getelementptr inbounds nuw i8, ptr %.pn73, i64 16
  %36 = call fastcc i32 @parse_branch(ptr noundef %7, ptr noundef %1, i32 noundef %2, ptr noundef %3, ptr noundef %4, ptr noundef nonnull %5)
  %37 = icmp slt i32 %36, 0
  %38 = load ptr, ptr %7, align 8, !tbaa !89
  br i1 %37, label %39, label %40

39:                                               ; preds = %.lr.ph
  tail call void @onig_node_free(ptr noundef %38)
  br label %55

40:                                               ; preds = %.lr.ph
  %41 = tail call noalias noundef dereferenceable_or_null(56) ptr @malloc(i64 noundef 56) #26
  %42 = icmp eq ptr %41, null
  br i1 %42, label %onig_node_new_alt.exit45, label %43

43:                                               ; preds = %40
  store i32 9, ptr %41, align 1
  %44 = getelementptr inbounds nuw i8, ptr %41, i64 8
  store ptr %38, ptr %44, align 8, !tbaa !13
  %45 = getelementptr inbounds nuw i8, ptr %41, i64 16
  store ptr null, ptr %45, align 8, !tbaa !13
  br label %onig_node_new_alt.exit45

onig_node_new_alt.exit45:                         ; preds = %40, %43
  store ptr %41, ptr %.05171, align 8, !tbaa !89
  %46 = icmp eq i32 %36, 13
  br i1 %46, label %33, label %47, !llvm.loop !111

47:                                               ; preds = %onig_node_new_alt.exit45
  %48 = load i32, ptr %1, align 8, !tbaa !96
  %.not = icmp eq i32 %48, %2
  br i1 %.not, label %52, label %50

49:                                               ; preds = %22
  tail call void @onig_node_free(ptr noundef %24)
  br label %50

50:                                               ; preds = %47, %49
  %51 = icmp eq i32 %2, 15
  %. = select i1 %51, i32 -117, i32 -11
  br label %55

52:                                               ; preds = %47, %20
  %.037 = phi i32 [ %2, %20 ], [ %36, %47 ]
  %53 = load i32, ptr %8, align 8, !tbaa !110
  %54 = add i32 %53, -1
  store i32 %54, ptr %8, align 8, !tbaa !110
  br label %55

55:                                               ; preds = %50, %6, %52, %39, %._crit_edge, %16
  %.038 = phi i32 [ %14, %16 ], [ %.037, %52 ], [ %.lcssa, %._crit_edge ], [ %36, %39 ], [ -16, %6 ], [ %., %50 ]
  call void @llvm.lifetime.end.p0(i64 8, ptr nonnull %7) #25
  ret i32 %.038
}